target datalayout = "e-m:e-p270:32:32-p271:32:32-p272:64:64-i64:64-i128:128-f80:128-n8:16:32:64-S128"
target triple = "x86_64-unknown-linux-gnu"

%"class.absl::lts_20230802::AnyInvocable" = type { %"class.absl::lts_20230802::internal_any_invocable::Impl" }
%"class.absl::lts_20230802::internal_any_invocable::Impl" = type { %"class.absl::lts_20230802::internal_any_invocable::CoreImpl" }
%"class.absl::lts_20230802::internal_any_invocable::CoreImpl" = type { %"union.absl::lts_20230802::internal_any_invocable::TypeErasedState", ptr, ptr }
%"union.absl::lts_20230802::internal_any_invocable::TypeErasedState" = type { %struct.anon.290 }
%struct.anon.290 = type { ptr, i64 }

; Function Attrs: mustprogress nounwind uwtable
define linkonce_odr void @_ZN4absl12lts_2023080222internal_any_invocable8CoreImplILb0EvJEED2Ev(ptr noundef nonnull align 16 dereferenceable(32) %this) unnamed_addr #5 comdat align 2 {
entry:
  %this.addr = alloca ptr, align 8
  store ptr %this, ptr %this.addr, align 8
  %this1 = load ptr, ptr %this.addr, align 8
  %manager_ = getelementptr inbounds %"class.absl::lts_20230802::internal_any_invocable::CoreImpl", ptr %this1, i32 0, i32 1
  %0 = load ptr, ptr %manager_, align 16
  %state_ = getelementptr inbounds %"class.absl::lts_20230802::internal_any_invocable::CoreImpl", ptr %this1, i32 0, i32 0
  %state_2 = getelementptr inbounds %"class.absl::lts_20230802::internal_any_invocable::CoreImpl", ptr %this1, i32 0, i32 0
  call void %0(i1 noundef zeroext true, ptr noundef %state_, ptr noundef %state_2) #3
  ret void
}

; Function Attrs: mustprogress nounwind uwtable
define linkonce_odr void @_ZN4absl12lts_2023080222internal_any_invocable8CoreImplILb0EvJEEC2EOS3_(ptr noundef nonnull align 16 dereferenceable(32) %this, ptr noundef nonnull align 16 dereferenceable(32) %other) unnamed_addr #5 comdat align 2 {
entry:
  %this.addr = alloca ptr, align 8
  %other.addr = alloca ptr, align 8
  store ptr %this, ptr %this.addr, align 8
  store ptr %other, ptr %other.addr, align 8
  %this1 = load ptr, ptr %this.addr, align 8
  %0 = load ptr, ptr %other.addr, align 8
  %manager_ = getelementptr inbounds %"class.absl::lts_20230802::internal_any_invocable::CoreImpl", ptr %0, i32 0, i32 1
  %1 = load ptr, ptr %manager_, align 16
  %2 = load ptr, ptr %other.addr, align 8
  %state_2 = getelementptr inbounds %"class.absl::lts_20230802::internal_any_invocable::CoreImpl", ptr %2, i32 0, i32 0
  %state_3 = getelementptr inbounds %"class.absl::lts_20230802::internal_any_invocable::CoreImpl", ptr %this1, i32 0, i32 0
  call void %1(i1 noundef zeroext false, ptr noundef %state_2, ptr noundef %state_3) #3
  %3 = load ptr, ptr %other.addr, align 8
  %manager_4 = getelementptr inbounds %"class.absl::lts_20230802::internal_any_invocable::CoreImpl", ptr %3, i32 0, i32 1
  %4 = load ptr, ptr %manager_4, align 16
  %manager_5 = getelementptr inbounds %"class.absl::lts_20230802::internal_any_invocable::CoreImpl", ptr %this1, i32 0, i32 1
  store ptr %4, ptr %manager_5, align 16
  %5 = load ptr, ptr %other.addr, align 8
  %invoker_ = getelementptr inbounds %"class.absl::lts_20230802::internal_any_invocable::CoreImpl", ptr %5, i32 0, i32 2
  %6 = load ptr, ptr %invoker_, align 8
  %invoker_6 = getelementptr inbounds %"class.absl::lts_20230802::internal_any_invocable::CoreImpl", ptr %this1, i32 0, i32 2
  store ptr %6, ptr %invoker_6, align 8
  %7 = load ptr, ptr %other.addr, align 8
  %manager_7 = getelementptr inbounds %"class.absl::lts_20230802::internal_any_invocable::CoreImpl", ptr %7, i32 0, i32 1
  store ptr @_ZN4absl12lts_2023080222internal_any_invocable12EmptyManagerENS1_14FunctionToCallEPNS1_15TypeErasedStateES4_, ptr %manager_7, align 16
  %8 = load ptr, ptr %other.addr, align 8
  %invoker_8 = getelementptr inbounds %"class.absl::lts_20230802::internal_any_invocable::CoreImpl", ptr %8, i32 0, i32 2
  store ptr null, ptr %invoker_8, align 8
  ret void
}

; Function Attrs: mustprogress nounwind uwtable
define linkonce_odr void @_ZN4absl12lts_2023080222internal_any_invocable4ImplIFvvEED2Ev(ptr noundef nonnull align 16 dereferenceable(32) %this) unnamed_addr #5 comdat align 2 {
entry:
  %this.addr = alloca ptr, align 8
  store ptr %this, ptr %this.addr, align 8
  %this1 = load ptr, ptr %this.addr, align 8
  call void @_ZN4absl12lts_2023080222internal_any_invocable8CoreImplILb0EvJEED2Ev(ptr noundef nonnull align 16 dereferenceable(32) %this1) #3
  ret void
}

; Function Attrs: mustprogress nounwind uwtable
define linkonce_odr void @_ZN4absl12lts_2023080222internal_any_invocable4ImplIFvvEEC2EOS4_(ptr noundef nonnull align 16 dereferenceable(32) %this, ptr noundef nonnull align 16 dereferenceable(32) %0) unnamed_addr #5 comdat align 2 {
entry:
  %this.addr = alloca ptr, align 8
  %.addr = alloca ptr, align 8
  store ptr %this, ptr %this.addr, align 8
  store ptr %0, ptr %.addr, align 8
  %this1 = load ptr, ptr %this.addr, align 8
  %1 = load ptr, ptr %.addr, align 8
  call void @_ZN4absl12lts_2023080222internal_any_invocable8CoreImplILb0EvJEEC2EOS3_(ptr noundef nonnull align 16 dereferenceable(32) %this1, ptr noundef nonnull align 16 dereferenceable(32) %1) #3
  ret void
}

; Function Attrs: mustprogress nounwind uwtable
define linkonce_odr void @_ZN4absl12lts_2023080212AnyInvocableIFvvEED2Ev(ptr noundef nonnull align 16 dereferenceable(32) %this) unnamed_addr #5 comdat align 2 {
entry:
  %this.addr = alloca ptr, align 8
  store ptr %this, ptr %this.addr, align 8
  %this1 = load ptr, ptr %this.addr, align 8
  call void @_ZN4absl12lts_2023080222internal_any_invocable4ImplIFvvEED2Ev(ptr noundef nonnull align 16 dereferenceable(32) %this1) #3
  ret void
}

; Function Attrs: mustprogress nounwind uwtable
define linkonce_odr void @_ZN4absl12lts_2023080212AnyInvocableIFvvEEC2EOS3_(ptr noundef nonnull align 16 dereferenceable(32) %this, ptr noundef nonnull align 16 dereferenceable(32) %0) unnamed_addr #5 comdat align 2 {
entry:
  %this.addr = alloca ptr, align 8
  %.addr = alloca ptr, align 8
  store ptr %this, ptr %this.addr, align 8
  store ptr %0, ptr %.addr, align 8
  %this1 = load ptr, ptr %this.addr, align 8
  %1 = load ptr, ptr %.addr, align 8
  call void @_ZN4absl12lts_2023080222internal_any_invocable4ImplIFvvEEC2EOS4_(ptr noundef nonnull align 16 dereferenceable(32) %this1, ptr noundef nonnull align 16 dereferenceable(32) %1) #3
  ret void
}

; Function Attrs: mustprogress nounwind uwtable
define linkonce_odr noundef ptr @_ZN9grpc_core9CppImplOfINS_4CallE9grpc_callE5FromCEPKS2_(ptr noundef %c_type) #5 comdat align 2 {
entry:
  %c_type.addr = alloca ptr, align 8
  store ptr %c_type, ptr %c_type.addr, align 8
  %0 = load ptr, ptr %c_type.addr, align 8
  ret ptr %0
}

; Function Attrs: mustprogress uwtable
define void @_Z29grpc_call_run_in_event_enginePK9grpc_callN4absl12lts_2023080212AnyInvocableIFvvEEE(ptr noundef %call, ptr noundef %cb) #4 personality ptr @__gxx_personality_v0 {
entry:
  %call.addr = alloca ptr, align 8
  %cb.indirect_addr = alloca ptr, align 8
  %agg.tmp = alloca %"class.absl::lts_20230802::AnyInvocable", align 16
  %exn.slot = alloca ptr, align 8
  %ehselector.slot = alloca i32, align 4
  store ptr %call, ptr %call.addr, align 8
  store ptr %cb, ptr %cb.indirect_addr, align 8
  %0 = load ptr, ptr %call.addr, align 8
  %call1 = call noundef ptr @_ZN9grpc_core9CppImplOfINS_4CallE9grpc_callE5FromCEPKS2_(ptr noundef %0)
  %vtable = load ptr, ptr %call1, align 8
  %vfn = getelementptr inbounds ptr, ptr %vtable, i64 14
  %1 = load ptr, ptr %vfn, align 8
  %call2 = call noundef ptr %1(ptr noundef nonnull align 8 dereferenceable(112) %call1)
  call void @_ZN4absl12lts_2023080212AnyInvocableIFvvEEC2EOS3_(ptr noundef nonnull align 16 dereferenceable(32) %agg.tmp, ptr noundef nonnull align 16 dereferenceable(32) %cb) #3
  %vtable3 = load ptr, ptr %call2, align 8
  %vfn4 = getelementptr inbounds ptr, ptr %vtable3, i64 8
  %2 = load ptr, ptr %vfn4, align 8
  invoke void %2(ptr noundef nonnull align 8 dereferenceable(24) %call2, ptr noundef %agg.tmp)
          to label %invoke.cont unwind label %lpad

invoke.cont:                                      ; preds = %entry
  call void @_ZN4absl12lts_2023080212AnyInvocableIFvvEED2Ev(ptr noundef nonnull align 16 dereferenceable(32) %agg.tmp) #3
  ret void

lpad:                                             ; preds = %entry
  %3 = landingpad { ptr, i32 }
          cleanup
  %4 = extractvalue { ptr, i32 } %3, 0
  store ptr %4, ptr %exn.slot, align 8
  %5 = extractvalue { ptr, i32 } %3, 1
  store i32 %5, ptr %ehselector.slot, align 4
  call void @_ZN4absl12lts_2023080212AnyInvocableIFvvEED2Ev(ptr noundef nonnull align 16 dereferenceable(32) %agg.tmp) #3
  br label %eh.resume

eh.resume:                                        ; preds = %lpad
  %exn = load ptr, ptr %exn.slot, align 8
  %sel = load i32, ptr %ehselector.slot, align 4
  %lpad.val = insertvalue { ptr, i32 } poison, ptr %exn, 0
  %lpad.val5 = insertvalue { ptr, i32 } %lpad.val, i32 %sel, 1
  resume { ptr, i32 } %lpad.val5
}