; Function Attrs: mustprogress uwtable
define void @_Z29grpc_call_run_in_event_enginePK9grpc_callN4absl12lts_2023080212AnyInvocableIFvvEEE(ptr noundef %call, ptr noundef %cb) local_unnamed_addr #3 personality ptr @__gxx_personality_v0 {
entry:
  %agg.tmp = alloca %"class.absl::lts_20230802::AnyInvocable", align 16
  %vtable = load ptr, ptr %call, align 8
  %vfn = getelementptr inbounds i8, ptr %vtable, i64 112
  %0 = load ptr, ptr %vfn, align 8
  %call2 = tail call noundef ptr %0(ptr noundef nonnull align 8 dereferenceable(112) %call)
  %manager_.i.i.i = getelementptr inbounds i8, ptr %cb, i64 16
  %1 = load ptr, ptr %manager_.i.i.i, align 16
  call void %1(i1 noundef zeroext false, ptr noundef nonnull %cb, ptr noundef nonnull %agg.tmp) #28
  %manager_5.i.i.i = getelementptr inbounds i8, ptr %agg.tmp, i64 16
  %invoker_.i.i.i = getelementptr inbounds i8, ptr %cb, i64 24
  %2 = load <2 x ptr>, ptr %manager_.i.i.i, align 16
  store <2 x ptr> %2, ptr %manager_5.i.i.i, align 16
  store ptr @_ZN4absl12lts_2023080222internal_any_invocable12EmptyManagerENS1_14FunctionToCallEPNS1_15TypeErasedStateES4_, ptr %manager_.i.i.i, align 16
  store ptr null, ptr %invoker_.i.i.i, align 8
  %vtable3 = load ptr, ptr %call2, align 8
  %vfn4 = getelementptr inbounds i8, ptr %vtable3, i64 64
  %3 = load ptr, ptr %vfn4, align 8
  invoke void %3(ptr noundef nonnull align 8 dereferenceable(24) %call2, ptr noundef nonnull %agg.tmp)
          to label %invoke.cont unwind label %lpad

invoke.cont:                                      ; preds = %entry
  %4 = load ptr, ptr %manager_5.i.i.i, align 16
  call void %4(i1 noundef zeroext true, ptr noundef nonnull %agg.tmp, ptr noundef nonnull %agg.tmp) #28
  ret void

lpad:                                             ; preds = %entry
  %5 = landingpad { ptr, i32 }
          cleanup
  %6 = load ptr, ptr %manager_5.i.i.i, align 16
  call void %6(i1 noundef zeroext true, ptr noundef nonnull %agg.tmp, ptr noundef nonnull %agg.tmp) #28
  resume { ptr, i32 } %5
}